target datalayout = "e-m:e-p270:32:32-p271:32:32-p272:64:64-i64:64-i128:128-f80:128-n8:16:32:64-S128"
target triple = "x86_64-pc-linux-gnu"

@rl_line_buffer = external global ptr, align 8
@.str.532 = private unnamed_addr constant [6 x i8] c"read_\00", align 1
@.str.533 = private unnamed_addr constant [7 x i8] c"write_\00", align 1

; Function Attrs: mustprogress uwtable
define internal noundef ptr @_ZN5YosysL19readline_completionEPKcii(ptr noundef %0, i32 noundef %1, i32 noundef %2) #4 {
  %4 = alloca ptr, align 8
  %5 = alloca ptr, align 8
  %6 = alloca i32, align 4
  %7 = alloca i32, align 4
  store ptr %0, ptr %5, align 8, !tbaa !33
  store i32 %1, ptr %6, align 4, !tbaa !21
  store i32 %2, ptr %7, align 4, !tbaa !21
  %8 = load i32, ptr %6, align 4, !tbaa !21
  %9 = icmp eq i32 %8, 0
  br i1 %9, label %10, label %13

10:                                               ; preds = %3
  %11 = load ptr, ptr %5, align 8, !tbaa !33
  %12 = call ptr @rl_completion_matches(ptr noundef %11, ptr noundef @_ZN5YosysL22readline_cmd_generatorEPKci)
  store ptr %12, ptr %4, align 8
  br label %25

13:                                               ; preds = %3
  %14 = load ptr, ptr @rl_line_buffer, align 8, !tbaa !33
  %15 = call i32 @strncmp(ptr noundef %14, ptr noundef @.str.532, i64 noundef 5) #27
  %16 = icmp ne i32 %15, 0
  br i1 %16, label %17, label %24

17:                                               ; preds = %13
  %18 = load ptr, ptr @rl_line_buffer, align 8, !tbaa !33
  %19 = call i32 @strncmp(ptr noundef %18, ptr noundef @.str.533, i64 noundef 6) #27
  %20 = icmp ne i32 %19, 0
  br i1 %20, label %21, label %24

21:                                               ; preds = %17
  %22 = load ptr, ptr %5, align 8, !tbaa !33
  %23 = call ptr @rl_completion_matches(ptr noundef %22, ptr noundef @_ZN5YosysL22readline_obj_generatorEPKci)
  store ptr %23, ptr %4, align 8
  br label %25

24:                                               ; preds = %17, %13
  store ptr null, ptr %4, align 8
  br label %25

25:                                               ; preds = %24, %21, %10
  %26 = load ptr, ptr %4, align 8
  ret ptr %26
}