; Function Attrs: mustprogress uwtable
define internal noundef ptr @_ZN5YosysL19readline_completionEPKcii(ptr noundef %0, i32 noundef %1, i32 %2) #5 {
  %4 = icmp eq i32 %1, 0
  br i1 %4, label %.sink.split, label %5

5:                                                ; preds = %3
  %6 = load ptr, ptr @rl_line_buffer, align 8, !tbaa !41
  %7 = tail call i32 @strncmp(ptr noundef nonnull dereferenceable(1) %6, ptr noundef nonnull dereferenceable(6) @.str.532, i64 noundef 5) #44
  %.not = icmp eq i32 %7, 0
  br i1 %.not, label %11, label %8

8:                                                ; preds = %5
  %9 = tail call i32 @strncmp(ptr noundef nonnull dereferenceable(1) %6, ptr noundef nonnull dereferenceable(7) @.str.533, i64 noundef 6) #44
  %.not3 = icmp eq i32 %9, 0
  br i1 %.not3, label %11, label %.sink.split

.sink.split:                                      ; preds = %8, %3
  %_ZN5YosysL22readline_obj_generatorEPKci.sink = phi ptr [ @_ZN5YosysL22readline_cmd_generatorEPKci, %3 ], [ @_ZN5YosysL22readline_obj_generatorEPKci, %8 ]
  %10 = tail call ptr @rl_completion_matches(ptr noundef %0, ptr noundef nonnull %_ZN5YosysL22readline_obj_generatorEPKci.sink)
  br label %11

11:                                               ; preds = %.sink.split, %5, %8
  %.0 = phi ptr [ null, %8 ], [ null, %5 ], [ %10, %.sink.split ]
  ret ptr %.0
}